; Function Attrs: mustprogress nounwind uwtable
define void @_ZN3zmq23stream_connecter_base_tD2Ev(ptr noundef nonnull align 8 dereferenceable(1544) initializes((0, 8), (1448, 1456)) %0) unnamed_addr #4 align 2 personality ptr @__gxx_personality_v0 {
  store ptr getelementptr inbounds nuw inrange(-16, 224) (i8, ptr @_ZTVN3zmq23stream_connecter_base_tE, i64 16), ptr %0, align 8, !tbaa !3
  %2 = getelementptr inbounds nuw i8, ptr %0, i64 1448
  store ptr getelementptr inbounds nuw inrange(-16, 40) (i8, ptr @_ZTVN3zmq23stream_connecter_base_tE, i64 256), ptr %2, align 8, !tbaa !3
  %3 = getelementptr inbounds nuw i8, ptr %0, i64 1529
  %4 = load i8, ptr %3, align 1, !tbaa !74, !range !81, !noundef !82
  %5 = trunc nuw i8 %4 to i1
  br i1 %5, label %6, label %11, !prof !77

6:                                                ; preds = %1
  %7 = load ptr, ptr @stderr, align 8, !tbaa !78
  %8 = tail call i32 (ptr, ptr, ...) @fprintf(ptr noundef %7, ptr noundef nonnull @.str, ptr noundef nonnull @.str.3, ptr noundef nonnull @.str.2, i32 noundef 45) #20
  %9 = load ptr, ptr @stderr, align 8, !tbaa !78
  %10 = tail call i32 @fflush(ptr noundef %9)
  invoke void @_ZN3zmq9zmq_abortEPKc(ptr noundef nonnull @.str.3)
          to label %11 unwind label %35

11:                                               ; preds = %1, %6
  %12 = getelementptr inbounds nuw i8, ptr %0, i64 1480
  %13 = load ptr, ptr %12, align 8, !tbaa !68
  %.not = icmp eq ptr %13, null
  br i1 %.not, label %19, label %14, !prof !83

14:                                               ; preds = %11
  %15 = load ptr, ptr @stderr, align 8, !tbaa !78
  %16 = tail call i32 (ptr, ptr, ...) @fprintf(ptr noundef %15, ptr noundef nonnull @.str, ptr noundef nonnull @.str.4, ptr noundef nonnull @.str.2, i32 noundef 46) #20
  %17 = load ptr, ptr @stderr, align 8, !tbaa !78
  %18 = tail call i32 @fflush(ptr noundef %17)
  invoke void @_ZN3zmq9zmq_abortEPKc(ptr noundef nonnull @.str.4)
          to label %19 unwind label %35

19:                                               ; preds = %11, %14
  %20 = getelementptr inbounds nuw i8, ptr %0, i64 1472
  %21 = load i32, ptr %20, align 8, !tbaa !67
  %.not1 = icmp eq i32 %21, -1
  br i1 %.not1, label %27, label %22, !prof !83

22:                                               ; preds = %19
  %23 = load ptr, ptr @stderr, align 8, !tbaa !78
  %24 = tail call i32 (ptr, ptr, ...) @fprintf(ptr noundef %23, ptr noundef nonnull @.str, ptr noundef nonnull @.str.5, ptr noundef nonnull @.str.2, i32 noundef 47) #20
  %25 = load ptr, ptr @stderr, align 8, !tbaa !78
  %26 = tail call i32 @fflush(ptr noundef %25)
  invoke void @_ZN3zmq9zmq_abortEPKc(ptr noundef nonnull @.str.5)
          to label %27 unwind label %35

27:                                               ; preds = %22, %19
  %28 = getelementptr inbounds nuw i8, ptr %0, i64 1488
  %29 = load ptr, ptr %28, align 8, !tbaa !80
  %30 = getelementptr inbounds nuw i8, ptr %0, i64 1504
  %31 = icmp eq ptr %29, %30
  br i1 %31, label %_ZNKSt7__cxx1112basic_stringIcSt11char_traitsIcESaIcEE11_M_is_localEv.exit.thread.i.i, label %_ZNKSt7__cxx1112basic_stringIcSt11char_traitsIcESaIcEE11_M_is_localEv.exit.i.i

_ZNKSt7__cxx1112basic_stringIcSt11char_traitsIcESaIcEE11_M_is_localEv.exit.thread.i.i: ; preds = %27
  %32 = getelementptr inbounds nuw i8, ptr %0, i64 1496
  %33 = load i64, ptr %32, align 8, !tbaa !70
  %34 = icmp ult i64 %33, 16
  tail call void @llvm.assume(i1 %34)
  br label %_ZNSt7__cxx1112basic_stringIcSt11char_traitsIcESaIcEED2Ev.exit

_ZNKSt7__cxx1112basic_stringIcSt11char_traitsIcESaIcEE11_M_is_localEv.exit.i.i: ; preds = %27
  tail call void @_ZdlPv(ptr noundef %29) #21
  br label %_ZNSt7__cxx1112basic_stringIcSt11char_traitsIcESaIcEED2Ev.exit

_ZNSt7__cxx1112basic_stringIcSt11char_traitsIcESaIcEED2Ev.exit: ; preds = %_ZNKSt7__cxx1112basic_stringIcSt11char_traitsIcESaIcEE11_M_is_localEv.exit.thread.i.i, %_ZNKSt7__cxx1112basic_stringIcSt11char_traitsIcESaIcEE11_M_is_localEv.exit.i.i
  tail call void @_ZN3zmq11io_object_tD2Ev(ptr noundef nonnull align 8 dereferenceable(16) %2) #22
  tail call void @_ZN3zmq5own_tD2Ev(ptr noundef nonnull align 8 dereferenceable(1444) %0) #22
  ret void

35:                                               ; preds = %22, %14, %6
  %36 = landingpad { ptr, i32 }
          catch ptr null
  %37 = extractvalue { ptr, i32 } %36, 0
  tail call void @__clang_call_terminate(ptr %37) #23
  unreachable
}